(lp0
(lp1
S''
p2
ag2
ag2
ag2
ag2
ag2
ag2
ag2
ag2
ag2
ag2
ag2
ag2
ag2
ag2
ag2
ag2
ag2
ag2
ag2
ag2
ag2
ag2
ag2
ag2
ag2
ag2
ag2
ag2
ag2
ag2
ag2
ag2
ag2
ag2
ag2
ag2
ag2
ag2
ag2
ag2
ag2
ag2
ag2
ag2
ag2
ag2
ag2
ag2
ag2
ag2
ag2
ag2
ag2
ag2
ag2
ag2
ag2
ag2
ag2
ag2
ag2
aS'hey'
p3
aS'fellas'
p4
ag2
ag2
aS'ms'
p5
aS'juicy'
p6
aS'is'
p7
aS'here....'
p8
aS'if'
p9
aS'looking'
p10
aS'have'
p11
aS'a'
p12
aS'little'
p13
aS'exotic'
p14
aS'fun'
p15
aS'with'
p16
ag12
aS'sexii,'
p17
aS'thick,'
p18
aS'pretty,'
p19
ag2
aS'im'
p20
aS'the'
p21
aS'girl'
p22
aS'looking'
p23
aS'for....'
p24
aS'i'
p25
aS'got'
p26
ag12
aS'fat'
p27
aS'azz'
p28
ag12
aS'whole'
p29
aS'lot'
p30
aS'of'
p31
aS'mouth'
p32
aS'if'
p33
aS'you'
p34
aS'know'
p35
aS'what'
p36
ag25
aS'mean'
p37
aS'so'
p38
aS'give'
p39
aS'me'
p40
ag12
aS'call....fetish'
p41
aS'friendlyfreaky'
p42
aS'party'
p43
aS'girlunrush'
p44
aS'n'
p45
aS'the'
p46
aS'time'
p47
aS'you'
p48
aS'choice'
p49
aS'spend'
p50
aS'with'
p51
aS'me9175306673'
p52
aS'no'
p53
aS'text'
p54
aS'blocked'
p55
aS'callsno'
p56
aS'law'
p57
aS'enforcement,'
p58
aS'tips'
p59
aS'for'
p60
aS'convo'
p61
aS'only...serious'
p62
aS'men'
p63
aS'only'
p64
aS'no'
p65
aS'time'
p66
aS'for'
p67
aS'games'
p68
ag2
ag2
ag2
ag2
ag2
ag2
ag2
ag2
ag2
ag2
ag2
ag2
ag2
ag2
ag2
ag2
ag2
ag2
aa(lp69
S'crazy'
p70
aS'lipz'
p71
ag45
aS'tight'
p72
aS'gripz'
p73
aS'freaky'
p74
aS'curvy'
p75
aS'petite'
p76
aS'domican'
p77
ag2
aS'60'
p78
aS'specials!!!'
p79
aS'-'
p80
aS'21'
p81
aa(lp82
S'i'
p83
aS'want'
p84
aS'show'
p85
aS'you'
p86
aS'amazing'
p87
aS'time'
p88
aS'make'
p89
aS'you'
p90
aS'feel'
p91
aS'great!near'
p92
aS'west'
p93
aS'51st'
p94
aS'10th'
p95
aS'avenue.'
p96
aS'very'
p97
aS'private.100%'
p98
aS'real'
p99
aS'midtown'
p100
aS'west'
p101
aS'near'
p102
aS'time'
p103
aS'squareincall'
p104
aS'half'
p105
aS'160'
p106
aS'hour'
p107
aS'300'
p108
aS'2hrs.'
p109
aS'500outcall'
p110
aS'350'
p111
aS'hour'
p112
aS'2hrs'
p113
aS'600'
p114
aS'xoxo'
p115
aS'call'
p116
aS'me!!!'
p117
aS'midtown'
p118
aS'west'
p119
aS'near'
p120
aS'time'
p121
aS'square'
p122
aS'my'
p123
aS'placethis'
p124
aS'is'
p125
aS'truly'
p126
aS'my'
p127
aS'photoalexis'
p128
aS'5'
p129
aS'feet'
p130
aS'small'
p131
aS'girl'
p132
aS'very'
p133
aS'pretty'
p134
aS'face'
p135
aS'private'
p136
aS'girl.917.631.6831'
p137
aS'incall'
p138
aS'outcall'
p139
aS'private'
p140
aS'nyc'
p141
aS'midtown'
p142
aa(lp143
S'~new'
p144
aS'sexy'
p145
aS'stunner~20yrs'
p146
aS'young'
p147
aS'asian'
p148
aS'latina'
p149
aS'american'
p150
aS'born'
p151
aS'princess'
p152
aS'truly'
p153
aS'beautiful~'
p154
aS'small'
p155
ag129
aS'feet'
p156
aS'-'
p157
aS'20'
p158
aa(lp159
S'i'
p160
aS'want'
p161
aS'show'
p162
aS'you'
p163
aS'amazing'
p164
aS'time'
p165
aS'make'
p166
aS'you'
p167
aS'feel'
p168
aS'great!near'
p169
aS'west'
p170
aS'51st'
p171
aS'10th'
p172
aS'avenue.'
p173
aS'very'
p174
aS'private.100%'
p175
aS'real'
p176
aS'midtown'
p177
aS'west'
p178
aS'near'
p179
aS'time'
p180
aS'squareincall'
p181
aS'half'
p182
aS'160'
p183
aS'hour'
p184
aS'300'
p185
aS'2hrs.'
p186
aS'500outcall'
p187
aS'350'
p188
aS'hour'
p189
aS'2hrs'
p190
aS'600'
p191
aS'xoxo'
p192
aS'call'
p193
aS'me!!!'
p194
aS'midtown'
p195
aS'west'
p196
aS'near'
p197
aS'time'
p198
aS'square'
p199
aS'my'
p200
aS'placethis'
p201
aS'is'
p202
aS'truly'
p203
aS'my'
p204
aS'photoalexis'
p205
aS'5'
p206
aS'feet'
p207
aS'small'
p208
aS'girl'
p209
aS'very'
p210
aS'pretty'
p211
aS'face'
p212
aS'private'
p213
aS'girl.917.631.6831'
p214
aS'incall'
p215
aS'outcall'
p216
aS'private'
p217
aS'nyc'
p218
aS'midtown'
p219
aa(lp220
S'~new'
p221
aS'sexy'
p222
aS'stunner~20yrs'
p223
aS'young'
p224
aS'asian'
p225
aS'latina'
p226
aS'american'
p227
aS'born'
p228
aS'princess'
p229
aS'truly'
p230
aS'beautiful~'
p231
aS'small'
p232
ag206
aS'feet'
p233
aS'-'
p234
aS'20'
p235
aa(lp236
S'i'
p237
aS'want'
p238
aS'show'
p239
aS'you'
p240
aS'amazing'
p241
aS'time'
p242
aS'make'
p243
aS'you'
p244
aS'feel'
p245
aS'great!near'
p246
aS'west'
p247
aS'51st'
p248
aS'10th'
p249
aS'avenue.'
p250
aS'very'
p251
aS'private.100%'
p252
aS'real'
p253
aS'midtown'
p254
aS'west'
p255
aS'near'
p256
aS'time'
p257
aS'squareincall'
p258
aS'half'
p259
aS'160'
p260
aS'hour'
p261
aS'300'
p262
aS'2hrs.'
p263
aS'500outcall'
p264
aS'350'
p265
aS'hour'
p266
aS'2hrs'
p267
aS'600'
p268
aS'xoxo'
p269
aS'call'
p270
aS'me!!!'
p271
aS'midtown'
p272
aS'west'
p273
aS'near'
p274
aS'time'
p275
aS'square'
p276
aS'my'
p277
aS'placethis'
p278
aS'is'
p279
aS'truly'
p280
aS'my'
p281
aS'photoalexis'
p282
aS'5'
p283
aS'feet'
p284
aS'small'
p285
aS'girl'
p286
aS'very'
p287
aS'pretty'
p288
aS'face'
p289
aS'private'
p290
aS'girl.917.631.6831'
p291
aS'incall'
p292
aS'outcall'
p293
aS'private'
p294
aS'nyc'
p295
aS'midtown'
p296
aa(lp297
S'~new'
p298
aS'sexy'
p299
aS'stunner~20yrs'
p300
aS'young'
p301
aS'asian'
p302
aS'latina'
p303
aS'american'
p304
aS'born'
p305
aS'princess'
p306
aS'truly'
p307
aS'beautiful~'
p308
aS'small'
p309
ag283
aS'feet'
p310
aS'-'
p311
aS'20'
p312
aa(lp313
V\u2605714-318-8454
p314
aV\u2605no
p315
aVblack
p316
aVmen!!!!*****generous
p317
aVmen
p318
aVonly
p319
aV*******
p320
aV\u2605
p321
aVmy
p322
aVnumber
p323
aVone
p324
aVgoal
p325
aVis
p326
aVcompanionship...
p327
aVno
p328
aVdrama,
p329
aVno
p330
aVbs,
p331
aVno
p332
aVgames.....
p333
aVi
p334
aVa
p335
aVclassy
p336
aVgirl
p337
aVvery
p338
aVselective
p339
aVin
p340
aVthe
p341
aVmen
p342
ag334
aVchoose
p343
aVsee.
p344
aVthis
p345
aVmay
p346
aVbe
p347
aVlucky
p348
aVday!!!the
p349
aVpics
p350
aVare
p351
aVof
p352
aVme
p353
aVare
p354
aV100%
p355
aVaccurate.
p356
aVarent
p357
aVyou
p358
aVgetting
p359
aVsick
p360
aVof
p361
aVreading
p362
aVthese
p363
aVlittle
p364
aVads???
p365
aVlet
p366
aVme
p367
aVmake
p368
aVthis
p369
aVeasier
p370
aVfor
p371
aVyou...
p372
aVcall
p373
aVme,
p374
aVlet's
p375
aVhave
p376
ag335
aVgreat
p377
aVtime!!!\u2605\u2605\u2605***generous
p378
aVrespectful
p379
aVmen
p380
aVonly"
p381
aV(714-318-8454
p382
aVchristina...
p383
aa(lp384
V**\u2605\u2605
p385
aVexotic\u2605gorgeous
p386
aVbusty
p387
aV\u2605
p388
aVblonde
p389
aV\u2605
p390
aV\U0001f478playmate\U0001f478
p391
aV\u2605\u2605***tight
p392
aVbody
p393
aV&
p394
aVwell
p395
aVtoned
p396
aV-
p397
aV26
p398
aa(lp399
V\u2605714-318-8454
p400
aV\u2605no
p401
aVblack
p402
aVmen!!!!*****generous
p403
aVmen
p404
aVonly
p405
aV*******
p406
aV\u2605
p407
aVmy
p408
aVnumber
p409
aVone
p410
aVgoal
p411
aVis
p412
aVcompanionship...
p413
aVno
p414
aVdrama,
p415
aVno
p416
aVbs,
p417
aVno
p418
aVgames.....
p419
aVi
p420
aVa
p421
aVclassy
p422
aVgirl
p423
aVvery
p424
aVselective
p425
aVin
p426
aVthe
p427
aVmen
p428
ag420
aVchoose
p429
aVsee.
p430
aVthis
p431
aVmay
p432
aVbe
p433
aVlucky
p434
aVday!!!the
p435
aVpics
p436
aVare
p437
aVof
p438
aVme
p439
aVare
p440
aV100%
p441
aVaccurate.
p442
aVarent
p443
aVyou
p444
aVgetting
p445
aVsick
p446
aVof
p447
aVreading
p448
aVthese
p449
aVlittle
p450
aVads???
p451
aVlet
p452
aVme
p453
aVmake
p454
aVthis
p455
aVeasier
p456
aVfor
p457
aVyou...
p458
aVcall
p459
aVme,
p460
aVlet's
p461
aVhave
p462
ag421
aVgreat
p463
aVtime!!!\u2605\u2605\u2605***generous
p464
aVrespectful
p465
aVmen
p466
aVonly"
p467
aV(714-318-8454
p468
aVchristina...
p469
aa(lp470
V**\u2605\u2605
p471
aVexotic\u2605gorgeous
p472
aVbusty
p473
aV\u2605
p474
aVblonde
p475
aV\u2605
p476
aV\U0001f478playmate\U0001f478
p477
aV\u2605\u2605***tight
p478
aVbody
p479
aV&
p480
aVwell
p481
aVtoned
p482
aV-
p483
aV26
p484
aa(lp485
V\u2605714-318-8454
p486
aV\u2605no
p487
aVblack
p488
aVmen!!!!*****generous
p489
aVmen
p490
aVonly
p491
aV*******
p492
aV\u2605
p493
aVmy
p494
aVnumber
p495
aVone
p496
aVgoal
p497
aVis
p498
aVcompanionship...
p499
aVno
p500
aVdrama,
p501
aVno
p502
aVbs,
p503
aVno
p504
aVgames.....
p505
aVi
p506
aVa
p507
aVclassy
p508
aVgirl
p509
aVvery
p510
aVselective
p511
aVin
p512
aVthe
p513
aVmen
p514
ag506
aVchoose
p515
aVsee.
p516
aVthis
p517
aVmay
p518
aVbe
p519
aVlucky
p520
aVday!!!the
p521
aVpics
p522
aVare
p523
aVof
p524
aVme
p525
aVare
p526
aV100%
p527
aVaccurate.
p528
aVarent
p529
aVyou
p530
aVgetting
p531
aVsick
p532
aVof
p533
aVreading
p534
aVthese
p535
aVlittle
p536
aVads???
p537
aVlet
p538
aVme
p539
aVmake
p540
aVthis
p541
aVeasier
p542
aVfor
p543
aVyou...
p544
aVcall
p545
aVme,
p546
aVlet's
p547
aVhave
p548
ag507
aVgreat
p549
aVtime!!!\u2605\u2605\u2605***generous
p550
aVrespectful
p551
aVmen
p552
aVonly"
p553
aV(714-318-8454
p554
aVchristina...
p555
aa(lp556
V**\u2605\u2605
p557
aVexotic\u2605gorgeous
p558
aVbusty
p559
aV\u2605
p560
aVblonde
p561
aV\u2605
p562
aV\U0001f478playmate\U0001f478
p563
aV\u2605\u2605***tight
p564
aVbody
p565
aV&
p566
aVwell
p567
aVtoned
p568
aV-
p569
aV26
p570
aa(lp571
S'clean,'
p572
aS'safe,'
p573
aS'busy'
p574
aS'midtown'
p575
aS'bodyrub'
p576
aS'spa,'
p577
aS'seeking'
p578
aS'attractive,'
p579
aS'fit,'
p580
aS'reliable'
p581
aS'girls.between'
p582
aS'the'
p583
aS'ages'
p584
aS'of'
p585
aS'20'
p586
aS'30'
p587
aS'years'
p588
aS'old'
p589
aS'for'
p590
aS'bodyworks'
p591
aS'.'
p592
aS'(full'
p593
aS'time'
p594
aS'part'
p595
aS'time'
p596
aS'work,'
p597
aS'immediate'
p598
aS'openings'
p599
aS')'
p600
aS'must'
p601
aS'be'
p602
aS'clean,'
p603
aS'well'
p604
aS'groomed,'
p605
aS'reliable'
p606
aS'have'
p607
aS'a'
p608
aS'nice'
p609
aS'friendly'
p610
aS'personality.'
p611
aS'latin,'
p612
aS'european,'
p613
aS'caucasian'
p614
aS'asian'
p615
aS'girls'
p616
aS'preferred'
p617
aS'but'
p618
aS'others'
p619
aS'will'
p620
aS'be'
p621
aS'considered'
p622
aS'please'
p623
aS'***call'
p624
aS'now'
p625
aS'347-379-3344***(please'
p626
aS'send'
p627
ag608
aS'picture),to'
p628
aS'set'
p629
aS'up'
p630
aS'appointment'
p631
aS'come'
p632
aS'in.'
p633
aS'thank'
p634
aS'you!!'
p635
aa(lp636
S'***@@@@midtown'
p637
aS'spa@@@@***'
p638
aS'@@@'
p639
aS'looking'
p640
aS'for'
p641
aS'nice'
p642
aS'girls'
p643
aS'****'
p644
aS'-'
p645
aS'25'
p646
aa(lp647
S'clean,'
p648
aS'safe,'
p649
aS'busy'
p650
aS'midtown'
p651
aS'bodyrub'
p652
aS'spa,'
p653
aS'seeking'
p654
aS'attractive,'
p655
aS'fit,'
p656
aS'reliable'
p657
aS'girls.between'
p658
aS'the'
p659
aS'ages'
p660
aS'of'
p661
aS'20'
p662
aS'30'
p663
aS'years'
p664
aS'old'
p665
aS'for'
p666
aS'bodyworks'
p667
aS'.'
p668
aS'(full'
p669
aS'time'
p670
aS'part'
p671
aS'time'
p672
aS'work,'
p673
aS'immediate'
p674
aS'openings'
p675
aS')'
p676
aS'must'
p677
aS'be'
p678
aS'clean,'
p679
aS'well'
p680
aS'groomed,'
p681
aS'reliable'
p682
aS'have'
p683
aS'a'
p684
aS'nice'
p685
aS'friendly'
p686
aS'personality.'
p687
aS'latin,'
p688
aS'european,'
p689
aS'caucasian'
p690
aS'asian'
p691
aS'girls'
p692
aS'preferred'
p693
aS'but'
p694
aS'others'
p695
aS'will'
p696
aS'be'
p697
aS'considered'
p698
aS'please'
p699
aS'***call'
p700
aS'now'
p701
aS'347-379-3344***(please'
p702
aS'send'
p703
ag684
aS'picture),to'
p704
aS'set'
p705
aS'up'
p706
aS'appointment'
p707
aS'come'
p708
aS'in.'
p709
aS'thank'
p710
aS'you!!'
p711
aa(lp712
S'***@@@@midtown'
p713
aS'spa@@@@***'
p714
aS'@@@'
p715
aS'looking'
p716
aS'for'
p717
aS'nice'
p718
aS'girls'
p719
aS'****'
p720
aS'-'
p721
aS'25'
p722
aa(lp723
S'clean,'
p724
aS'safe,'
p725
aS'busy'
p726
aS'midtown'
p727
aS'bodyrub'
p728
aS'spa,'
p729
aS'seeking'
p730
aS'attractive,'
p731
aS'fit,'
p732
aS'reliable'
p733
aS'girls.between'
p734
aS'the'
p735
aS'ages'
p736
aS'of'
p737
aS'20'
p738
aS'30'
p739
aS'years'
p740
aS'old'
p741
aS'for'
p742
aS'bodyworks'
p743
aS'.'
p744
aS'(full'
p745
aS'time'
p746
aS'part'
p747
aS'time'
p748
aS'work,'
p749
aS'immediate'
p750
aS'openings'
p751
aS')'
p752
aS'must'
p753
aS'be'
p754
aS'clean,'
p755
aS'well'
p756
aS'groomed,'
p757
aS'reliable'
p758
aS'have'
p759
aS'a'
p760
aS'nice'
p761
aS'friendly'
p762
aS'personality.'
p763
aS'latin,'
p764
aS'european,'
p765
aS'caucasian'
p766
aS'asian'
p767
aS'girls'
p768
aS'preferred'
p769
aS'but'
p770
aS'others'
p771
aS'will'
p772
aS'be'
p773
aS'considered'
p774
aS'please'
p775
aS'***call'
p776
aS'now'
p777
aS'347-379-3344***and'
p778
aS'send'
p779
ag760
aS'picture,to'
p780
aS'set'
p781
aS'up'
p782
aS'appointment'
p783
aS'come'
p784
aS'in.'
p785
aS'thank'
p786
aS'you!!'
p787
aa(lp788
S'***@@@@midtown'
p789
aS'spa@@@@***'
p790
aS'@@@'
p791
aS'looking'
p792
aS'for'
p793
aS'nice'
p794
aS'girls'
p795
aS'****'
p796
aS'-'
p797
aS'25'
p798
aa(lp799
S'clean,'
p800
aS'safe,'
p801
aS'busy'
p802
aS'midtown'
p803
aS'bodyrub'
p804
aS'spa,'
p805
aS'seeking'
p806
aS'attractive,'
p807
aS'fit,'
p808
aS'reliable'
p809
aS'girls.between'
p810
aS'the'
p811
aS'ages'
p812
aS'of'
p813
aS'20'
p814
aS'30'
p815
aS'years'
p816
aS'old'
p817
aS'for'
p818
aS'bodyworks'
p819
aS'.'
p820
aS'(full'
p821
aS'time'
p822
aS'part'
p823
aS'time'
p824
aS'work,'
p825
aS'immediate'
p826
aS'openings'
p827
aS')'
p828
aS'must'
p829
aS'be'
p830
aS'clean,'
p831
aS'well'
p832
aS'groomed,'
p833
aS'reliable'
p834
aS'have'
p835
aS'a'
p836
aS'nice'
p837
aS'friendly'
p838
aS'personality.'
p839
aS'latin,'
p840
aS'european,'
p841
aS'caucasian'
p842
aS'asian'
p843
aS'girls'
p844
aS'preferred'
p845
aS'but'
p846
aS'others'
p847
aS'will'
p848
aS'be'
p849
aS'considered'
p850
aS'please'
p851
aS'***call'
p852
aS'now'
p853
aS'347-379-3344***and'
p854
aS'send'
p855
ag836
aS'picture,to'
p856
aS'set'
p857
aS'up'
p858
aS'appointment'
p859
aS'come'
p860
aS'in.'
p861
aS'thank'
p862
aS'you!!'
p863
aa(lp864
S'***@@@@midtown'
p865
aS'spa@@@@***'
p866
aS'@@@'
p867
aS'looking'
p868
aS'for'
p869
aS'nice'
p870
aS'girls'
p871
aS'****'
p872
aS'-'
p873
aS'25'
p874
aa(lp875
S'clean,'
p876
aS'safe,'
p877
aS'busy'
p878
aS'midtown'
p879
aS'bodyrub'
p880
aS'spa,'
p881
aS'seeking'
p882
aS'attractive,'
p883
aS'fit,'
p884
aS'reliable'
p885
aS'girls.between'
p886
aS'the'
p887
aS'ages'
p888
aS'of'
p889
aS'20'
p890
aS'30'
p891
aS'years'
p892
aS'old'
p893
aS'for'
p894
aS'bodyworks'
p895
aS'.'
p896
aS'(full'
p897
aS'time'
p898
aS'part'
p899
aS'time'
p900
aS'work,'
p901
aS'immediate'
p902
aS'openings'
p903
aS')'
p904
aS'must'
p905
aS'be'
p906
aS'clean,'
p907
aS'well'
p908
aS'groomed,'
p909
aS'reliable'
p910
aS'have'
p911
aS'a'
p912
aS'nice'
p913
aS'friendly'
p914
aS'personality.'
p915
aS'latin,'
p916
aS'european,'
p917
aS'caucasian'
p918
aS'asian'
p919
aS'girls'
p920
aS'preferred'
p921
aS'but'
p922
aS'others'
p923
aS'will'
p924
aS'be'
p925
aS'considered'
p926
aS'please'
p927
aS'***call'
p928
aS'now'
p929
aS'347-667-9718***and'
p930
aS'send'
p931
ag912
aS'picture,'
p932
aS'then'
p933
aS'set'
p934
aS'up'
p935
aS'appointment'
p936
aS'come'
p937
aS'in.'
p938
aS'thank'
p939
aS'you!!'
p940
aa(lp941
S'***@@@@midtown'
p942
aS'spa@@@@***'
p943
aS'@@@'
p944
aS'looking'
p945
aS'for'
p946
aS'nice'
p947
aS'girls'
p948
aS'****'
p949
aS'-'
p950
aS'25'
p951
aa.